target datalayout = "e-m:e-p270:32:32-p271:32:32-p272:64:64-i64:64-i128:128-f80:128-n8:16:32:64-S128"
target triple = "x86_64-pc-linux-gnu"

%struct._packet_info = type { ptr, ptr, i32, i32, %struct.nstime_t, %struct.nstime_t, %struct.nstime_t, i8, ptr, ptr, ptr, ptr, %struct._address, %struct._address, %struct._address, %struct._address, %struct._address, %struct._address, i32, ptr, i8, [3 x i8], %struct.anon, i32, i32, i32, i32, ptr, i8, ptr, ptr, i16, i16, i32, i32, i16, i32, i32, ptr, ptr, ptr, i8, i8, i16, i16, i16, i32, i16, i16, ptr, ptr, ptr, ptr, ptr, i32, i32 }
%struct.nstime_t = type { i64, i32 }
%struct._address = type { i32, i32, ptr, ptr }
%struct.anon = type { i8, [3 x i8] }

@hf_infiniband_DETH = internal global i32 0, align 4
@hf_infiniband_queue_key = internal global i32 0, align 4
@hf_infiniband_source_qp = internal global i32 0, align 4
@hf_infiniband_reserved = internal global i32 0, align 4
@ett_deth = internal global i32 0, align 4
@.str.1230 = private unnamed_addr constant [3 x i8] c"%s\00", align 1
@.str.1324 = private unnamed_addr constant [42 x i8] c"DETH - Datagram Extended Transport Header\00", align 1

; Function Attrs: null_pointer_is_valid sspstrong uwtable
define internal void @parse_DETH(ptr noundef %0, ptr noundef %1, ptr noundef %2, ptr noundef %3) #0 {
  %5 = alloca ptr, align 8
  %6 = alloca ptr, align 8
  %7 = alloca ptr, align 8
  %8 = alloca ptr, align 8
  %9 = alloca i32, align 4
  %10 = alloca ptr, align 8
  %11 = alloca ptr, align 8
  store ptr %0, ptr %5, align 8
  store ptr %1, ptr %6, align 8
  store ptr %2, ptr %7, align 8
  store ptr %3, ptr %8, align 8
  call void @llvm.lifetime.start.p0(i64 4, ptr %9) #18
  %12 = load ptr, ptr %8, align 8
  %13 = load i32, ptr %12, align 4
  store i32 %13, ptr %9, align 4
  call void @llvm.lifetime.start.p0(i64 8, ptr %10) #18
  call void @llvm.lifetime.start.p0(i64 8, ptr %11) #18
  %14 = load ptr, ptr %5, align 8
  %15 = load i32, ptr @hf_infiniband_DETH, align 4
  %16 = load ptr, ptr %7, align 8
  %17 = load i32, ptr %9, align 4
  %18 = call ptr @proto_tree_add_item(ptr noundef %14, i32 noundef %15, ptr noundef %16, i32 noundef %17, i32 noundef 8, i32 noundef 0)
  store ptr %18, ptr %10, align 8
  %19 = load ptr, ptr %10, align 8
  call void (ptr, ptr, ...) @proto_item_set_text(ptr noundef %19, ptr noundef @.str.1230, ptr noundef @.str.1324)
  %20 = load ptr, ptr %10, align 8
  %21 = load i32, ptr @ett_deth, align 4
  %22 = call ptr @proto_item_add_subtree(ptr noundef %20, i32 noundef %21)
  store ptr %22, ptr %11, align 8
  %23 = load ptr, ptr %11, align 8
  %24 = load i32, ptr @hf_infiniband_queue_key, align 4
  %25 = load ptr, ptr %7, align 8
  %26 = load i32, ptr %9, align 4
  %27 = call ptr @proto_tree_add_item(ptr noundef %23, i32 noundef %24, ptr noundef %25, i32 noundef %26, i32 noundef 4, i32 noundef 0)
  %28 = load i32, ptr %9, align 4
  %29 = add i32 %28, 4
  store i32 %29, ptr %9, align 4
  %30 = load ptr, ptr %11, align 8
  %31 = load i32, ptr @hf_infiniband_reserved, align 4
  %32 = load ptr, ptr %7, align 8
  %33 = load i32, ptr %9, align 4
  %34 = call ptr @proto_tree_add_item(ptr noundef %30, i32 noundef %31, ptr noundef %32, i32 noundef %33, i32 noundef 1, i32 noundef 0)
  %35 = load i32, ptr %9, align 4
  %36 = add i32 %35, 1
  store i32 %36, ptr %9, align 4
  %37 = load ptr, ptr %11, align 8
  %38 = load i32, ptr @hf_infiniband_source_qp, align 4
  %39 = load ptr, ptr %7, align 8
  %40 = load i32, ptr %9, align 4
  %41 = call ptr @proto_tree_add_item(ptr noundef %37, i32 noundef %38, ptr noundef %39, i32 noundef %40, i32 noundef 3, i32 noundef 0)
  %42 = load ptr, ptr %7, align 8
  %43 = load i32, ptr %9, align 4
  %44 = call i32 @tvb_get_ntoh24(ptr noundef %42, i32 noundef %43)
  %45 = load ptr, ptr %6, align 8
  %46 = getelementptr inbounds nuw %struct._packet_info, ptr %45, i32 0, i32 24
  store i32 %44, ptr %46, align 4
  %47 = load i32, ptr %9, align 4
  %48 = add i32 %47, 3
  store i32 %48, ptr %9, align 4
  %49 = load i32, ptr %9, align 4
  %50 = load ptr, ptr %8, align 8
  store i32 %49, ptr %50, align 4
  call void @llvm.lifetime.end.p0(i64 8, ptr %11) #18
  call void @llvm.lifetime.end.p0(i64 8, ptr %10) #18
  call void @llvm.lifetime.end.p0(i64 4, ptr %9) #18
  ret void
}