; Function Attrs: null_pointer_is_valid sspstrong uwtable
define internal fastcc void @parse_DETH(ptr noundef %0, ptr noundef writeonly captures(none) initializes((284, 288)) %1, ptr noundef %2, ptr noundef captures(none) %3) unnamed_addr #0 {
  %5 = load i32, ptr %3, align 4
  %6 = load i32, ptr @hf_infiniband_DETH, align 4
  %7 = tail call ptr @proto_tree_add_item(ptr noundef %0, i32 noundef %6, ptr noundef %2, i32 noundef %5, i32 noundef 8, i32 noundef 0)
  tail call void (ptr, ptr, ...) @proto_item_set_text(ptr noundef %7, ptr noundef nonnull @.str.1230, ptr noundef nonnull @.str.1324)
  %8 = load i32, ptr @ett_deth, align 4
  %9 = tail call ptr @proto_item_add_subtree(ptr noundef %7, i32 noundef %8)
  %10 = load i32, ptr @hf_infiniband_queue_key, align 4
  %11 = tail call ptr @proto_tree_add_item(ptr noundef %9, i32 noundef %10, ptr noundef %2, i32 noundef %5, i32 noundef 4, i32 noundef 0)
  %12 = add i32 %5, 4
  %13 = load i32, ptr @hf_infiniband_reserved, align 4
  %14 = tail call ptr @proto_tree_add_item(ptr noundef %9, i32 noundef %13, ptr noundef %2, i32 noundef %12, i32 noundef 1, i32 noundef 0)
  %15 = add i32 %5, 5
  %16 = load i32, ptr @hf_infiniband_source_qp, align 4
  %17 = tail call ptr @proto_tree_add_item(ptr noundef %9, i32 noundef %16, ptr noundef %2, i32 noundef %15, i32 noundef 3, i32 noundef 0)
  %18 = tail call i32 @tvb_get_ntoh24(ptr noundef %2, i32 noundef %15)
  %19 = getelementptr inbounds nuw i8, ptr %1, i64 284
  store i32 %18, ptr %19, align 4
  %20 = add i32 %5, 8
  store i32 %20, ptr %3, align 4
  ret void
}